; ModuleID = '26/1226.c'
source_filename = "26/1226.c"
target datalayout = "e-m:e-p270:32:32-p271:32:32-p272:64:64-i64:64-f80:128-n8:16:32:64-S128"
target triple = "x86_64-pc-linux-gnu"

; Function Attrs: noinline nounwind uwtable
define dso_local i32 @main() #0 {
  %1 = alloca i32, align 4
  %2 = alloca [101 x i8], align 16
  %3 = alloca [101 x i8], align 16
  %4 = alloca i32, align 4
  %5 = alloca i32, align 4
  %6 = alloca i32, align 4
  %7 = alloca i32, align 4
  store i32 0, i32* %1, align 4
  %8 = getelementptr inbounds [101 x i8], [101 x i8]* %2, i64 0, i64 0
  %9 = call i32 (i8*, ...) bitcast (i32 (...)* @gets to i32 (i8*, ...)*)(i8* %8)
  %10 = getelementptr inbounds [101 x i8], [101 x i8]* %2, i64 0, i64 0
  %11 = call i64 @strlen(i8* %10) #3
  %12 = trunc i64 %11 to i32
  store i32 %12, i32* %5, align 4
  store i32 0, i32* %4, align 4
  store i32 0, i32* %6, align 4
  br label %13

13:                                               ; preds = %43, %0
  %14 = load i32, i32* %4, align 4
  %15 = load i32, i32* %5, align 4
  %16 = icmp sle i32 %14, %15
  br i1 %16, label %17, label %46

17:                                               ; preds = %13
  %18 = load i32, i32* %4, align 4
  %19 = sext i32 %18 to i64
  %20 = getelementptr inbounds [101 x i8], [101 x i8]* %2, i64 0, i64 %19
  %21 = load i8, i8* %20, align 1
  %22 = sext i8 %21 to i32
  %23 = icmp eq i32 %22, 32
  br i1 %23, label %24, label %33

24:                                               ; preds = %17
  %25 = load i32, i32* %4, align 4
  %26 = add nsw i32 %25, 1
  %27 = sext i32 %26 to i64
  %28 = getelementptr inbounds [101 x i8], [101 x i8]* %2, i64 0, i64 %27
  %29 = load i8, i8* %28, align 1
  %30 = sext i8 %29 to i32
  %31 = icmp eq i32 %30, 32
  br i1 %31, label %32, label %33

32:                                               ; preds = %24
  br label %43

33:                                               ; preds = %24, %17
  %34 = load i32, i32* %4, align 4
  %35 = sext i32 %34 to i64
  %36 = getelementptr inbounds [101 x i8], [101 x i8]* %2, i64 0, i64 %35
  %37 = load i8, i8* %36, align 1
  %38 = load i32, i32* %6, align 4
  %39 = sext i32 %38 to i64
  %40 = getelementptr inbounds [101 x i8], [101 x i8]* %3, i64 0, i64 %39
  store i8 %37, i8* %40, align 1
  %41 = load i32, i32* %6, align 4
  %42 = add nsw i32 %41, 1
  store i32 %42, i32* %6, align 4
  br label %43

43:                                               ; preds = %33, %32
  %44 = load i32, i32* %4, align 4
  %45 = add nsw i32 %44, 1
  store i32 %45, i32* %4, align 4
  br label %13

46:                                               ; preds = %13
  %47 = getelementptr inbounds [101 x i8], [101 x i8]* %3, i64 0, i64 0
  %48 = call i32 @puts(i8* %47)
  ret i32 0
}

declare dso_local i32 @gets(...) #1

; Function Attrs: nounwind readonly
declare dso_local i64 @strlen(i8*) #2

declare dso_local i32 @puts(i8*) #1


!llvm.module.flags = !{!0}
!llvm.ident = !{!1}

!0 = !{i32 1, !"wchar_size", i32 4}
!1 = !{!"clang version 10.0.0-4ubuntu1 "}
